target datalayout = "e-m:e-p270:32:32-p271:32:32-p272:64:64-i64:64-i128:128-f80:128-n8:16:32:64-S128"
target triple = "x86_64-unknown-linux-gnu"

%struct.HashMap = type { ptr, i32, i32 }
%struct.Scope = type { ptr, %struct.HashMap, %struct.HashMap }
%struct.Token = type { i32, ptr, i64, x86_fp80, ptr, i32, ptr, ptr, ptr, ptr, i32, i32, i8, i8, ptr, ptr }
%struct.Obj = type { ptr, ptr, ptr, ptr, i8, i32, i32, i8, i8, i8, i8, i8, ptr, ptr, i8, ptr, ptr, ptr, ptr, ptr, i32, i8, i8, %struct.StringArray }
%struct.StringArray = type { ptr, i32, i32 }
%struct.Type = type { i32, i32, i32, i8, i8, ptr, ptr, ptr, ptr, i32, ptr, ptr, ptr, i8, i8, ptr, ptr, i8, ptr }
%struct.VarScope = type { ptr, ptr, ptr, i32 }

@scope = internal global ptr @.compoundliteral, align 8
@.str.66 = private unnamed_addr constant [23 x i8] c"expected an identifier\00", align 1
@locals = internal global ptr null, align 8
@.str.150 = private unnamed_addr constant [23 x i8] c"parameter name omitted\00", align 1

; Function Attrs: nounwind uwtable
define internal ptr @push_scope(ptr noundef %name) #0 {
entry:
  %name.addr = alloca ptr, align 8
  %sc = alloca ptr, align 8
  store ptr %name, ptr %name.addr, align 8
  %call = call noalias ptr @calloc(i64 noundef 1, i64 noundef 32) #8
  store ptr %call, ptr %sc, align 8
  %0 = load ptr, ptr @scope, align 8
  %vars = getelementptr inbounds %struct.Scope, ptr %0, i32 0, i32 1
  %1 = load ptr, ptr %name.addr, align 8
  %2 = load ptr, ptr %sc, align 8
  call void @hashmap_put(ptr noundef %vars, ptr noundef %1, ptr noundef %2)
  %3 = load ptr, ptr %sc, align 8
  ret ptr %3
}

; Function Attrs: nounwind uwtable
define internal ptr @new_var(ptr noundef %name, ptr noundef %ty) #0 {
entry:
  %name.addr = alloca ptr, align 8
  %ty.addr = alloca ptr, align 8
  %var = alloca ptr, align 8
  store ptr %name, ptr %name.addr, align 8
  store ptr %ty, ptr %ty.addr, align 8
  %call = call noalias ptr @calloc(i64 noundef 1, i64 noundef 144) #8
  store ptr %call, ptr %var, align 8
  %0 = load ptr, ptr %name.addr, align 8
  %1 = load ptr, ptr %var, align 8
  %name1 = getelementptr inbounds %struct.Obj, ptr %1, i32 0, i32 1
  store ptr %0, ptr %name1, align 8
  %2 = load ptr, ptr %ty.addr, align 8
  %3 = load ptr, ptr %var, align 8
  %ty2 = getelementptr inbounds %struct.Obj, ptr %3, i32 0, i32 2
  store ptr %2, ptr %ty2, align 8
  %4 = load ptr, ptr %ty.addr, align 8
  %align = getelementptr inbounds %struct.Type, ptr %4, i32 0, i32 2
  %5 = load i32, ptr %align, align 8
  %6 = load ptr, ptr %var, align 8
  %align3 = getelementptr inbounds %struct.Obj, ptr %6, i32 0, i32 5
  store i32 %5, ptr %align3, align 4
  %7 = load ptr, ptr %var, align 8
  %8 = load ptr, ptr %name.addr, align 8
  %call4 = call ptr @push_scope(ptr noundef %8)
  %var5 = getelementptr inbounds %struct.VarScope, ptr %call4, i32 0, i32 0
  store ptr %7, ptr %var5, align 8
  %9 = load ptr, ptr %var, align 8
  ret ptr %9
}

; Function Attrs: nounwind uwtable
define internal ptr @new_lvar(ptr noundef %name, ptr noundef %ty) #0 {
entry:
  %name.addr = alloca ptr, align 8
  %ty.addr = alloca ptr, align 8
  %var = alloca ptr, align 8
  store ptr %name, ptr %name.addr, align 8
  store ptr %ty, ptr %ty.addr, align 8
  %0 = load ptr, ptr %name.addr, align 8
  %1 = load ptr, ptr %ty.addr, align 8
  %call = call ptr @new_var(ptr noundef %0, ptr noundef %1)
  store ptr %call, ptr %var, align 8
  %2 = load ptr, ptr %var, align 8
  %is_local = getelementptr inbounds %struct.Obj, ptr %2, i32 0, i32 4
  store i8 1, ptr %is_local, align 8
  %3 = load ptr, ptr @locals, align 8
  %4 = load ptr, ptr %var, align 8
  %next = getelementptr inbounds %struct.Obj, ptr %4, i32 0, i32 0
  store ptr %3, ptr %next, align 8
  %5 = load ptr, ptr %var, align 8
  store ptr %5, ptr @locals, align 8
  %6 = load ptr, ptr %var, align 8
  ret ptr %6
}

; Function Attrs: nounwind uwtable
define internal ptr @get_ident(ptr noundef %tok) #0 {
entry:
  %tok.addr = alloca ptr, align 8
  store ptr %tok, ptr %tok.addr, align 8
  %0 = load ptr, ptr %tok.addr, align 8
  %kind = getelementptr inbounds %struct.Token, ptr %0, i32 0, i32 0
  %1 = load i32, ptr %kind, align 16
  %cmp = icmp ne i32 %1, 0
  br i1 %cmp, label %if.then, label %if.end

if.then:                                          ; preds = %entry
  %2 = load ptr, ptr %tok.addr, align 8
  call void (ptr, ptr, ...) @error_tok(ptr noundef %2, ptr noundef @.str.66) #9
  unreachable

if.end:                                           ; preds = %entry
  %3 = load ptr, ptr %tok.addr, align 8
  %loc = getelementptr inbounds %struct.Token, ptr %3, i32 0, i32 4
  %4 = load ptr, ptr %loc, align 16
  %5 = load ptr, ptr %tok.addr, align 8
  %len = getelementptr inbounds %struct.Token, ptr %5, i32 0, i32 5
  %6 = load i32, ptr %len, align 8
  %conv = sext i32 %6 to i64
  %call = call noalias ptr @strndup(ptr noundef %4, i64 noundef %conv) #11
  ret ptr %call
}

; Function Attrs: nounwind uwtable
define internal void @create_param_lvars(ptr noundef %param) #0 {
entry:
  %param.addr = alloca ptr, align 8
  store ptr %param, ptr %param.addr, align 8
  %0 = load ptr, ptr %param.addr, align 8
  %tobool = icmp ne ptr %0, null
  br i1 %tobool, label %if.then, label %if.end5

if.then:                                          ; preds = %entry
  %1 = load ptr, ptr %param.addr, align 8
  %next = getelementptr inbounds %struct.Type, ptr %1, i32 0, i32 18
  %2 = load ptr, ptr %next, align 8
  call void @create_param_lvars(ptr noundef %2)
  %3 = load ptr, ptr %param.addr, align 8
  %name = getelementptr inbounds %struct.Type, ptr %3, i32 0, i32 7
  %4 = load ptr, ptr %name, align 8
  %tobool1 = icmp ne ptr %4, null
  br i1 %tobool1, label %if.end, label %if.then2

if.then2:                                         ; preds = %if.then
  %5 = load ptr, ptr %param.addr, align 8
  %name_pos = getelementptr inbounds %struct.Type, ptr %5, i32 0, i32 8
  %6 = load ptr, ptr %name_pos, align 8
  call void (ptr, ptr, ...) @error_tok(ptr noundef %6, ptr noundef @.str.150) #9
  unreachable

if.end:                                           ; preds = %if.then
  %7 = load ptr, ptr %param.addr, align 8
  %name3 = getelementptr inbounds %struct.Type, ptr %7, i32 0, i32 7
  %8 = load ptr, ptr %name3, align 8
  %call = call ptr @get_ident(ptr noundef %8)
  %9 = load ptr, ptr %param.addr, align 8
  %call4 = call ptr @new_lvar(ptr noundef %call, ptr noundef %9)
  br label %if.end5

if.end5:                                          ; preds = %if.end, %entry
  ret void
}