; Function Attrs: nounwind uwtable
define internal fastcc void @create_param_lvars(ptr noundef %param) unnamed_addr #0 {
entry:
  %tobool.not = icmp eq ptr %param, null
  br i1 %tobool.not, label %if.end5, label %if.then

if.then:                                          ; preds = %entry
  %next = getelementptr inbounds %struct.Type, ptr %param, i64 0, i32 18
  %0 = load ptr, ptr %next, align 8
  tail call fastcc void @create_param_lvars(ptr noundef %0)
  %name = getelementptr inbounds %struct.Type, ptr %param, i64 0, i32 7
  %1 = load ptr, ptr %name, align 8
  %tobool1.not = icmp eq ptr %1, null
  br i1 %tobool1.not, label %if.then2, label %if.end

if.then2:                                         ; preds = %if.then
  %name_pos = getelementptr inbounds %struct.Type, ptr %param, i64 0, i32 8
  %2 = load ptr, ptr %name_pos, align 8
  tail call void (ptr, ptr, ...) @error_tok(ptr noundef %2, ptr noundef nonnull @.str.150) #16
  unreachable

if.end:                                           ; preds = %if.then
  %3 = load i32, ptr %1, align 16
  %cmp.not.i = icmp eq i32 %3, 0
  br i1 %cmp.not.i, label %get_ident.exit, label %if.then.i

if.then.i:                                        ; preds = %if.end
  tail call void (ptr, ptr, ...) @error_tok(ptr noundef nonnull %1, ptr noundef nonnull @.str.66) #16
  unreachable

get_ident.exit:                                   ; preds = %if.end
  %loc.i = getelementptr inbounds %struct.Token, ptr %1, i64 0, i32 4
  %4 = load ptr, ptr %loc.i, align 16
  %len.i = getelementptr inbounds %struct.Token, ptr %1, i64 0, i32 5
  %5 = load i32, ptr %len.i, align 8
  %conv.i = sext i32 %5 to i64
  %call.i = tail call noalias ptr @strndup(ptr noundef %4, i64 noundef %conv.i) #13
  %call.i.i = tail call noalias dereferenceable_or_null(144) ptr @calloc(i64 noundef 1, i64 noundef 144) #14
  %name1.i.i = getelementptr inbounds %struct.Obj, ptr %call.i.i, i64 0, i32 1
  store ptr %call.i, ptr %name1.i.i, align 8
  %ty2.i.i = getelementptr inbounds %struct.Obj, ptr %call.i.i, i64 0, i32 2
  store ptr %param, ptr %ty2.i.i, align 8
  %align.i.i = getelementptr inbounds %struct.Type, ptr %param, i64 0, i32 2
  %6 = load i32, ptr %align.i.i, align 8
  %align3.i.i = getelementptr inbounds %struct.Obj, ptr %call.i.i, i64 0, i32 5
  store i32 %6, ptr %align3.i.i, align 4
  %call.i.i.i = tail call noalias dereferenceable_or_null(32) ptr @calloc(i64 noundef 1, i64 noundef 32) #14
  %7 = load ptr, ptr @scope, align 8
  %vars.i.i.i = getelementptr inbounds %struct.Scope, ptr %7, i64 0, i32 1
  tail call void @hashmap_put(ptr noundef nonnull %vars.i.i.i, ptr noundef %call.i, ptr noundef %call.i.i.i) #13
  store ptr %call.i.i, ptr %call.i.i.i, align 8
  %is_local.i = getelementptr inbounds %struct.Obj, ptr %call.i.i, i64 0, i32 4
  store i8 1, ptr %is_local.i, align 8
  %8 = load ptr, ptr @locals, align 8
  store ptr %8, ptr %call.i.i, align 8
  store ptr %call.i.i, ptr @locals, align 8
  br label %if.end5

if.end5:                                          ; preds = %get_ident.exit, %entry
  ret void
}